(dp0
S'obs_time'
p1
S'2012-12-12 20:00:00'
p2
sS'fov_height'
p3
I3
sS'fov_width'
p4
I3
sS'altitude'
p5
I2635
sS'longitude'
p6
F-70.404
sS'input_ra'
p7
F2.0
sS'input_dec'
p8
F5.0
sS'skymap'
p9
S'bayestar.fits.gz'
p10
sS'latitude'
p11
F-24.627
s.